
image:     file format elf32-lm32

Sections:
Idx Name          Size      VMA       LMA       File off  Algn
  0 .text         000007d0  00000000  00000000  00000054  2**2
                  CONTENTS, ALLOC, LOAD, CODE
  1 .rodata       00000074  000007d0  000007d0  00000824  2**2
                  CONTENTS, ALLOC, LOAD, READONLY, DATA
  2 .data         00000018  00000844  00000844  00000898  2**2
                  CONTENTS, ALLOC, LOAD, DATA
  3 .bss          00000084  0000085c  0000085c  000008b0  2**2
                  ALLOC
  4 .debug_frame  00000268  00000000  00000000  000008b0  2**2
                  CONTENTS, READONLY, DEBUGGING
  5 .debug_info   000013c0  00000000  00000000  00000b18  2**0
                  CONTENTS, READONLY, DEBUGGING
  6 .debug_abbrev 000007a4  00000000  00000000  00001ed8  2**0
                  CONTENTS, READONLY, DEBUGGING
  7 .debug_loc    00000451  00000000  00000000  0000267c  2**0
                  CONTENTS, READONLY, DEBUGGING
  8 .debug_aranges 000000a0  00000000  00000000  00002acd  2**0
                  CONTENTS, READONLY, DEBUGGING
  9 .debug_ranges 00000040  00000000  00000000  00002b6d  2**0
                  CONTENTS, READONLY, DEBUGGING
 10 .debug_line   00000769  00000000  00000000  00002bad  2**0
                  CONTENTS, READONLY, DEBUGGING
 11 .debug_str    0000052f  00000000  00000000  00003316  2**0
                  CONTENTS, READONLY, DEBUGGING
 12 .comment      00000011  00000000  00000000  00003845  2**0
                  CONTENTS, READONLY

Disassembly of section .text:

00000000 <_ftext>:
   0:	98 00 00 00 	xor r0,r0,r0
   4:	d0 00 00 00 	wcsr IE,r0
   8:	78 01 00 00 	mvhi r1,0x0
   c:	38 21 00 00 	ori r1,r1,0x0
  10:	d0 e1 00 00 	wcsr EBA,r1
  14:	f8 00 00 33 	calli e0 <_crt0>
  18:	34 00 00 00 	nop
  1c:	34 00 00 00 	nop

00000020 <_breakpoint_handler>:
  20:	34 00 00 00 	nop
  24:	34 00 00 00 	nop
  28:	34 00 00 00 	nop
  2c:	34 00 00 00 	nop
  30:	34 00 00 00 	nop
  34:	34 00 00 00 	nop
  38:	34 00 00 00 	nop
  3c:	34 00 00 00 	nop

00000040 <_ibuserror_handler>:
  40:	34 00 00 00 	nop
  44:	34 00 00 00 	nop
  48:	34 00 00 00 	nop
  4c:	34 00 00 00 	nop
  50:	34 00 00 00 	nop
  54:	34 00 00 00 	nop
  58:	34 00 00 00 	nop
  5c:	34 00 00 00 	nop

00000060 <_watchpoint_handler>:
  60:	34 00 00 00 	nop
  64:	34 00 00 00 	nop
  68:	34 00 00 00 	nop
  6c:	34 00 00 00 	nop
  70:	34 00 00 00 	nop
  74:	34 00 00 00 	nop
  78:	34 00 00 00 	nop
  7c:	34 00 00 00 	nop

00000080 <_dbuserror_handler>:
  80:	34 00 00 00 	nop
  84:	34 00 00 00 	nop
  88:	34 00 00 00 	nop
  8c:	34 00 00 00 	nop
  90:	34 00 00 00 	nop
  94:	34 00 00 00 	nop
  98:	34 00 00 00 	nop
  9c:	34 00 00 00 	nop

000000a0 <_divzero_handler>:
  a0:	34 00 00 00 	nop
  a4:	34 00 00 00 	nop
  a8:	34 00 00 00 	nop
  ac:	34 00 00 00 	nop
  b0:	34 00 00 00 	nop
  b4:	34 00 00 00 	nop
  b8:	34 00 00 00 	nop
  bc:	34 00 00 00 	nop

000000c0 <_scall_handler>:
  c0:	34 00 00 00 	nop
  c4:	34 00 00 00 	nop
  c8:	34 00 00 00 	nop
  cc:	34 00 00 00 	nop
  d0:	34 00 00 00 	nop
  d4:	34 00 00 00 	nop
  d8:	34 00 00 00 	nop
  dc:	34 00 00 00 	nop

000000e0 <_crt0>:
  e0:	78 1c 00 00 	mvhi sp,0x0
  e4:	3b 9c 0f fc 	ori sp,sp,0xffc
  e8:	78 1a 00 00 	mvhi gp,0x0
  ec:	3b 5a 08 60 	ori gp,gp,0x860
  f0:	78 01 00 00 	mvhi r1,0x0
  f4:	38 21 08 5c 	ori r1,r1,0x85c
  f8:	78 03 00 00 	mvhi r3,0x0
  fc:	38 63 08 e0 	ori r3,r3,0x8e0

00000100 <.clearBSS>:
 100:	44 23 00 04 	be r1,r3,110 <.callMain>
 104:	58 20 00 00 	sw (r1+0),r0
 108:	34 21 00 04 	addi r1,r1,4
 10c:	e3 ff ff fd 	bi 100 <.clearBSS>

00000110 <.callMain>:
 110:	34 01 00 00 	mvi r1,0
 114:	34 02 00 00 	mvi r2,0
 118:	34 03 00 00 	mvi r3,0
 11c:	f8 00 00 33 	calli 1e8 <main>

00000120 <irq_enable>:
 120:	34 01 00 01 	mvi r1,1
 124:	d0 01 00 00 	wcsr IE,r1
 128:	c3 a0 00 00 	ret

0000012c <irq_disable>:
 12c:	34 01 00 00 	mvi r1,0
 130:	d0 01 00 00 	wcsr IE,r1
 134:	c3 a0 00 00 	ret

00000138 <irq_set_mask>:
 138:	d0 21 00 00 	wcsr IM,r1
 13c:	c3 a0 00 00 	ret

00000140 <irq_get_mask>:
 140:	90 20 08 00 	rcsr r1,IM
 144:	c3 a0 00 00 	ret

00000148 <jump>:
 148:	c0 20 00 00 	b r1

0000014c <halt>:
 14c:	e0 00 00 00 	bi 14c <halt>

00000150 <_save_all>:
 150:	37 9c ff 80 	addi sp,sp,-128
 154:	5b 81 00 04 	sw (sp+4),r1
 158:	5b 82 00 08 	sw (sp+8),r2
 15c:	5b 83 00 0c 	sw (sp+12),r3
 160:	5b 84 00 10 	sw (sp+16),r4
 164:	5b 85 00 14 	sw (sp+20),r5
 168:	5b 86 00 18 	sw (sp+24),r6
 16c:	5b 87 00 1c 	sw (sp+28),r7
 170:	5b 88 00 20 	sw (sp+32),r8
 174:	5b 89 00 24 	sw (sp+36),r9
 178:	5b 8a 00 28 	sw (sp+40),r10
 17c:	5b 9e 00 78 	sw (sp+120),ea
 180:	5b 9f 00 7c 	sw (sp+124),ba
 184:	2b 81 00 80 	lw r1,(sp+128)
 188:	5b 81 00 74 	sw (sp+116),r1
 18c:	bb 80 08 00 	mv r1,sp
 190:	34 21 00 80 	addi r1,r1,128
 194:	5b 81 00 70 	sw (sp+112),r1
 198:	c3 a0 00 00 	ret

0000019c <_restore_all_and_eret>:
 19c:	2b 81 00 04 	lw r1,(sp+4)
 1a0:	2b 82 00 08 	lw r2,(sp+8)
 1a4:	2b 83 00 0c 	lw r3,(sp+12)
 1a8:	2b 84 00 10 	lw r4,(sp+16)
 1ac:	2b 85 00 14 	lw r5,(sp+20)
 1b0:	2b 86 00 18 	lw r6,(sp+24)
 1b4:	2b 87 00 1c 	lw r7,(sp+28)
 1b8:	2b 88 00 20 	lw r8,(sp+32)
 1bc:	2b 89 00 24 	lw r9,(sp+36)
 1c0:	2b 8a 00 28 	lw r10,(sp+40)
 1c4:	2b 9d 00 74 	lw ra,(sp+116)
 1c8:	2b 9e 00 78 	lw ea,(sp+120)
 1cc:	2b 9f 00 7c 	lw ba,(sp+124)
 1d0:	2b 9c 00 70 	lw sp,(sp+112)
 1d4:	c3 c0 00 00 	eret

000001d8 <get_sp>:
 1d8:	bb 80 08 00 	mv r1,sp
 1dc:	c3 a0 00 00 	ret

000001e0 <get_gp>:
 1e0:	bb 40 08 00 	mv r1,gp
 1e4:	c3 a0 00 00 	ret

000001e8 <main>:
#include "timer.h"
#include "uart.h"


int main()
{	
 1e8:	37 9c ff dc 	addi sp,sp,-36
 1ec:	5b 8b 00 14 	sw (sp+20),r11
 1f0:	5b 8c 00 10 	sw (sp+16),r12
 1f4:	5b 8d 00 0c 	sw (sp+12),r13
 1f8:	5b 8e 00 08 	sw (sp+8),r14
 1fc:	5b 9d 00 04 	sw (sp+4),ra
			motor.pwm_sel(motor.brazo(0x02), 0x12, true);//brazo 2 C
			motor.pwm_sel(motor.brazo(0x03), 0x12, true);//brazo 3 C
			motor.pwm_sel(motor.brazo(0x04), 0x12, true);//brazo 4 C
		}			
	}*/
	if(com==0xFD)
 200:	34 0c 00 fd 	mvi r12,253
		comando.uart_putchar(0x03);//mover un motor	
		char b=comando.uart_getchar();
		char c=comando.uart_getchar();
		com=comando.uart_getchar();
		
		if(com==0xF0)
 204:	34 0e 00 f0 	mvi r14,240
		com=comando.uart_getchar();
 208:	37 81 00 18 	addi r1,sp,24
 20c:	f8 00 01 46 	calli 724 <_ZN4uart12uart_getcharEv>
 210:	b8 20 58 00 	mv r11,r1
		comando.uart_putchar(com);
 214:	b8 20 10 00 	mv r2,r1
 218:	37 81 00 18 	addi r1,sp,24
 21c:	f8 00 01 4c 	calli 74c <_ZN4uart12uart_putcharEc>
	if(com==0xFD)
 220:	5d 6c ff fa 	bne r11,r12,208 <main+0x20>
		comando.uart_putchar(0x03);//mover un motor	
 224:	34 02 00 03 	mvi r2,3
 228:	37 81 00 18 	addi r1,sp,24
 22c:	f8 00 01 48 	calli 74c <_ZN4uart12uart_putcharEc>
		char b=comando.uart_getchar();
 230:	37 81 00 18 	addi r1,sp,24
 234:	f8 00 01 3c 	calli 724 <_ZN4uart12uart_getcharEv>
 238:	b8 20 68 00 	mv r13,r1
		char c=comando.uart_getchar();
 23c:	37 81 00 18 	addi r1,sp,24
 240:	f8 00 01 39 	calli 724 <_ZN4uart12uart_getcharEv>
 244:	b8 20 58 00 	mv r11,r1
		com=comando.uart_getchar();
 248:	37 81 00 18 	addi r1,sp,24
 24c:	f8 00 01 36 	calli 724 <_ZN4uart12uart_getcharEv>
		if(com==0xF0)
 250:	5c 2e ff ee 	bne r1,r14,208 <main+0x20>
		{		
			comando.uart_putchar(b); //seleccion brazo
 254:	b9 a0 10 00 	mv r2,r13
 258:	37 81 00 18 	addi r1,sp,24
 25c:	f8 00 01 3c 	calli 74c <_ZN4uart12uart_putcharEc>
			comando.uart_putchar(c);//seleciona motor
 260:	b9 60 10 00 	mv r2,r11
 264:	37 81 00 18 	addi r1,sp,24
 268:	f8 00 01 39 	calli 74c <_ZN4uart12uart_putcharEc>
			motor.pwm_sel(motor.brazo(b), c, true);//mover
 26c:	b9 a0 10 00 	mv r2,r13
 270:	37 81 00 20 	addi r1,sp,32
 274:	f8 00 01 11 	calli 6b8 <_ZN3pwm5brazoEc>
 278:	b8 20 10 00 	mv r2,r1
 27c:	34 04 00 01 	mvi r4,1
 280:	b9 60 18 00 	mv r3,r11
 284:	37 81 00 20 	addi r1,sp,32
 288:	f8 00 00 d0 	calli 5c8 <_ZN3pwm7pwm_selEicb>
 28c:	e3 ff ff df 	bi 208 <main+0x20>

00000290 <_Z8isr_nullv>:
/***************************************************************************
 * IRQ handling
 */
void isr_null()
{
}
 290:	c3 a0 00 00 	ret

00000294 <_Z7tic_isrv>:

uint32_t tic_msec;

void tic_isr()
{
	tic_msec++;
 294:	78 01 00 00 	mvhi r1,0x0
 298:	38 21 07 d0 	ori r1,r1,0x7d0
 29c:	28 22 00 00 	lw r2,(r1+0)
	timer0->tcr0     = TIMER_EN | TIMER_AR | TIMER_IRQEN;
 2a0:	78 04 00 00 	mvhi r4,0x0
 2a4:	38 84 07 d4 	ori r4,r4,0x7d4
 2a8:	28 83 00 00 	lw r3,(r4+0)
	tic_msec++;
 2ac:	28 41 00 00 	lw r1,(r2+0)
	timer0->tcr0     = TIMER_EN | TIMER_AR | TIMER_IRQEN;
 2b0:	28 63 00 00 	lw r3,(r3+0)
	tic_msec++;
 2b4:	34 21 00 01 	addi r1,r1,1
 2b8:	58 41 00 00 	sw (r2+0),r1
	timer0->tcr0     = TIMER_EN | TIMER_AR | TIMER_IRQEN;
 2bc:	34 01 00 0e 	mvi r1,14
 2c0:	58 61 00 00 	sw (r3+0),r1
}
 2c4:	c3 a0 00 00 	ret

000002c8 <_Z8pwm_readv>:
	return pwm -> d_out;
 2c8:	78 02 00 00 	mvhi r2,0x0
 2cc:	38 42 07 d8 	ori r2,r2,0x7d8
 2d0:	28 41 00 00 	lw r1,(r2+0)
 2d4:	28 21 00 00 	lw r1,(r1+0)
 2d8:	28 21 00 00 	lw r1,(r1+0)
}
 2dc:	c3 a0 00 00 	ret

000002e0 <_Z6pwm_rdh>:
pwm -> rd = vrd;
 2e0:	78 03 00 00 	mvhi r3,0x0
 2e4:	38 63 07 dc 	ori r3,r3,0x7dc
 2e8:	28 62 00 00 	lw r2,(r3+0)
void pwm_rd(uint8_t vrd){
 2ec:	20 21 00 ff 	andi r1,r1,0xff
pwm -> rd = vrd;
 2f0:	28 42 00 00 	lw r2,(r2+0)
 2f4:	30 41 00 04 	sb (r2+4),r1
}
 2f8:	c3 a0 00 00 	ret

000002fc <_Z8pwm_addrj>:
pwm -> addr = vaddr;
 2fc:	78 03 00 00 	mvhi r3,0x0
 300:	38 63 07 e0 	ori r3,r3,0x7e0
 304:	28 62 00 00 	lw r2,(r3+0)
 308:	28 42 00 00 	lw r2,(r2+0)
 30c:	58 41 00 08 	sw (r2+8),r1
}
 310:	c3 a0 00 00 	ret

00000314 <_Z6pwm_wrh>:
pwm -> wr = vwr;
 314:	78 03 00 00 	mvhi r3,0x0
 318:	38 63 07 e4 	ori r3,r3,0x7e4
 31c:	28 62 00 00 	lw r2,(r3+0)
void pwm_wr(uint8_t vwr){
 320:	20 21 00 ff 	andi r1,r1,0xff
pwm -> wr = vwr;
 324:	28 42 00 00 	lw r2,(r2+0)
 328:	30 41 00 0c 	sb (r2+12),r1
}
 32c:	c3 a0 00 00 	ret

00000330 <_Z7pwm_dinj>:
pwm -> d_in = vd_in;
 330:	78 03 00 00 	mvhi r3,0x0
 334:	38 63 07 e8 	ori r3,r3,0x7e8
 338:	28 62 00 00 	lw r2,(r3+0)
 33c:	28 42 00 00 	lw r2,(r2+0)
 340:	58 41 00 10 	sw (r2+16),r1
}
 344:	c3 a0 00 00 	ret

00000348 <_Z15gpio_config_dirj>:
	gpio0 -> dir = vdir;
 348:	78 03 00 00 	mvhi r3,0x0
 34c:	38 63 07 ec 	ori r3,r3,0x7ec
 350:	28 62 00 00 	lw r2,(r3+0)
 354:	28 42 00 00 	lw r2,(r2+0)
 358:	58 41 00 08 	sw (r2+8),r1
}
 35c:	c3 a0 00 00 	ret

00000360 <_Z10gpio_writej>:
	gpio0 -> wr = vpins;
 360:	78 03 00 00 	mvhi r3,0x0
 364:	38 63 07 f0 	ori r3,r3,0x7f0
 368:	28 62 00 00 	lw r2,(r3+0)
 36c:	28 42 00 00 	lw r2,(r2+0)
 370:	58 41 00 04 	sw (r2+4),r1
}
 374:	c3 a0 00 00 	ret

00000378 <_Z9gpio_readv>:
	return gpio0 -> rd;
 378:	78 02 00 00 	mvhi r2,0x0
 37c:	38 42 07 f4 	ori r2,r2,0x7f4
 380:	28 41 00 00 	lw r1,(r2+0)
 384:	28 21 00 00 	lw r1,(r1+0)
 388:	28 21 00 00 	lw r1,(r1+0)
}
 38c:	c3 a0 00 00 	ret

00000390 <_Z11irq_handlerj>:
{
 390:	37 9c ff f0 	addi sp,sp,-16
 394:	5b 8b 00 10 	sw (sp+16),r11
 398:	5b 8c 00 0c 	sw (sp+12),r12
 39c:	5b 8d 00 08 	sw (sp+8),r13
 3a0:	5b 9d 00 04 	sw (sp+4),ra
 3a4:	78 02 00 00 	mvhi r2,0x0
 3a8:	38 42 07 f8 	ori r2,r2,0x7f8
 3ac:	28 4b 00 00 	lw r11,(r2+0)
 3b0:	b8 20 60 00 	mv r12,r1
 3b4:	35 6d 00 80 	addi r13,r11,128
		if (pending & 0x01) (*isr_table[i])();
 3b8:	21 81 00 01 	andi r1,r12,0x1
 3bc:	44 20 00 03 	be r1,r0,3c8 <_Z11irq_handlerj+0x38>
 3c0:	29 61 00 00 	lw r1,(r11+0)
 3c4:	d8 20 00 00 	call r1
 3c8:	35 6b 00 04 	addi r11,r11,4
		pending >>= 1;
 3cc:	01 8c 00 01 	srui r12,r12,1
	for(i=0; i<32; i++) {
 3d0:	5d ab ff fa 	bne r13,r11,3b8 <_Z11irq_handlerj+0x28>
}
 3d4:	2b 9d 00 04 	lw ra,(sp+4)
 3d8:	2b 8b 00 10 	lw r11,(sp+16)
 3dc:	2b 8c 00 0c 	lw r12,(sp+12)
 3e0:	2b 8d 00 08 	lw r13,(sp+8)
 3e4:	37 9c 00 10 	addi sp,sp,16
 3e8:	c3 a0 00 00 	ret

000003ec <_Z8isr_initv>:
{
 3ec:	78 02 00 00 	mvhi r2,0x0
 3f0:	38 42 07 fc 	ori r2,r2,0x7fc
 3f4:	28 41 00 00 	lw r1,(r2+0)
 3f8:	78 02 00 00 	mvhi r2,0x0
 3fc:	38 42 08 00 	ori r2,r2,0x800
 400:	28 43 00 00 	lw r3,(r2+0)
 404:	34 22 00 80 	addi r2,r1,128
		isr_table[i] = &isr_null;
 408:	58 23 00 00 	sw (r1+0),r3
 40c:	34 21 00 04 	addi r1,r1,4
	for(i=0; i<32; i++)
 410:	5c 22 ff fe 	bne r1,r2,408 <_Z8isr_initv+0x1c>
}
 414:	c3 a0 00 00 	ret

00000418 <_Z12isr_registeriPFvvE>:
	isr_table[irq] = isr;
 418:	78 04 00 00 	mvhi r4,0x0
 41c:	38 84 08 04 	ori r4,r4,0x804
 420:	3c 23 00 02 	sli r3,r1,2
 424:	28 81 00 00 	lw r1,(r4+0)
 428:	b4 23 08 00 	add r1,r1,r3
 42c:	58 22 00 00 	sw (r1+0),r2
}
 430:	c3 a0 00 00 	ret

00000434 <_Z14isr_unregisteri>:
	isr_table[irq] = &isr_null;
 434:	78 03 00 00 	mvhi r3,0x0
 438:	38 63 08 08 	ori r3,r3,0x808
 43c:	3c 22 00 02 	sli r2,r1,2
 440:	28 61 00 00 	lw r1,(r3+0)
 444:	78 03 00 00 	mvhi r3,0x0
 448:	38 63 08 0c 	ori r3,r3,0x80c
 44c:	b4 22 08 00 	add r1,r1,r2
 450:	28 62 00 00 	lw r2,(r3+0)
 454:	58 22 00 00 	sw (r1+0),r2
}
 458:	c3 a0 00 00 	ret

0000045c <_Z6msleepj>:
	timer0->compare1 = (FCPU/1000)*msec;
 45c:	78 03 00 00 	mvhi r3,0x0
 460:	38 02 c3 50 	mvu r2,0xc350
 464:	38 63 08 10 	ori r3,r3,0x810
 468:	88 22 08 00 	mul r1,r1,r2
 46c:	28 62 00 00 	lw r2,(r3+0)
 470:	28 42 00 00 	lw r2,(r2+0)
 474:	58 41 00 10 	sw (r2+16),r1
	timer0->counter1 = 0;
 478:	58 40 00 14 	sw (r2+20),r0
	timer0->tcr1 = TIMER_EN;
 47c:	34 01 00 08 	mvi r1,8
 480:	58 41 00 0c 	sw (r2+12),r1
 		tcr = timer0->tcr1;
 484:	28 41 00 0c 	lw r1,(r2+12)
 	} while ( ! (tcr & TIMER_TRIG) );
 488:	20 21 00 01 	andi r1,r1,0x1
 48c:	44 20 ff fe 	be r1,r0,484 <_Z6msleepj+0x28>
}
 490:	c3 a0 00 00 	ret

00000494 <_Z6nsleepj>:
	timer0->compare1 = (FCPU/1000000)*nsec;
 494:	78 03 00 00 	mvhi r3,0x0
 498:	38 63 08 14 	ori r3,r3,0x814
 49c:	28 62 00 00 	lw r2,(r3+0)
 4a0:	08 21 00 32 	muli r1,r1,50
 4a4:	28 42 00 00 	lw r2,(r2+0)
 4a8:	58 41 00 10 	sw (r2+16),r1
	timer0->counter1 = 0;
 4ac:	58 40 00 14 	sw (r2+20),r0
	timer0->tcr1 = TIMER_EN;
 4b0:	34 01 00 08 	mvi r1,8
 4b4:	58 41 00 0c 	sw (r2+12),r1
 		tcr = timer0->tcr1;
 4b8:	28 41 00 0c 	lw r1,(r2+12)
 	} while ( ! (tcr & TIMER_TRIG) );
 4bc:	20 21 00 01 	andi r1,r1,0x1
 4c0:	44 20 ff fe 	be r1,r0,4b8 <_Z6nsleepj+0x24>
}
 4c4:	c3 a0 00 00 	ret

000004c8 <_Z8tic_initv>:
void tic_init()
{
	tic_msec = 0;

	// Setup timer0.0
	timer0->compare0 = (FCPU/10000);
 4c8:	78 02 00 00 	mvhi r2,0x0
 4cc:	38 42 08 18 	ori r2,r2,0x818
 4d0:	28 41 00 00 	lw r1,(r2+0)
	tic_msec = 0;
 4d4:	78 03 00 00 	mvhi r3,0x0
	timer0->compare0 = (FCPU/10000);
 4d8:	34 02 13 88 	mvi r2,5000
 4dc:	28 21 00 00 	lw r1,(r1+0)
	tic_msec = 0;
 4e0:	38 63 08 1c 	ori r3,r3,0x81c
	timer0->compare0 = (FCPU/10000);
 4e4:	58 22 00 04 	sw (r1+4),r2
	tic_msec = 0;
 4e8:	28 62 00 00 	lw r2,(r3+0)
	timer0->counter0 = 0;
 4ec:	58 20 00 08 	sw (r1+8),r0
	isr_table[irq] = isr;
 4f0:	78 03 00 00 	mvhi r3,0x0
	tic_msec = 0;
 4f4:	58 40 00 00 	sw (r2+0),r0
	timer0->tcr0     = TIMER_EN | TIMER_AR | TIMER_IRQEN;
 4f8:	34 02 00 0e 	mvi r2,14
 4fc:	58 22 00 00 	sw (r1+0),r2
	isr_table[irq] = isr;
 500:	78 02 00 00 	mvhi r2,0x0
 504:	38 42 08 20 	ori r2,r2,0x820
 508:	38 63 08 24 	ori r3,r3,0x824
 50c:	28 41 00 00 	lw r1,(r2+0)
 510:	28 62 00 00 	lw r2,(r3+0)
 514:	58 22 00 04 	sw (r1+4),r2

	isr_register(1, &tic_isr);
}
 518:	c3 a0 00 00 	ret

0000051c <_Z8i2c_initv>:
 * I2C Functions
 */
void i2c_init()
{

	i2c0->prerl =0x00;
 51c:	78 02 00 00 	mvhi r2,0x0
 520:	38 42 08 28 	ori r2,r2,0x828
 524:	28 41 00 00 	lw r1,(r2+0)
	i2c0->prerh =0x50;
 528:	34 02 00 50 	mvi r2,80
	i2c0->prerl =0x00;
 52c:	28 21 00 00 	lw r1,(r1+0)
 530:	30 20 00 00 	sb (r1+0),r0
	i2c0->prerh =0x50;
 534:	30 22 00 01 	sb (r1+1),r2
	i2c0->ctr =0x80;
 538:	34 02 ff 80 	mvi r2,-128
 53c:	30 22 00 02 	sb (r1+2),r2


}
 540:	c3 a0 00 00 	ret

00000544 <_Z9i2c_writeccc>:

void i2c_write(char addrDev, char addrReg, char dat)
{

   i2c0->TxRx=(addrDev<<1 +1);
 544:	78 05 00 00 	mvhi r5,0x0
 548:	38 a5 08 2c 	ori r5,r5,0x82c
 54c:	28 a4 00 00 	lw r4,(r5+0)
 550:	3c 21 00 02 	sli r1,r1,2
{
 554:	20 42 00 ff 	andi r2,r2,0xff
   i2c0->TxRx=(addrDev<<1 +1);
 558:	28 84 00 00 	lw r4,(r4+0)
 55c:	20 21 00 fc 	andi r1,r1,0xfc
{
 560:	20 63 00 ff 	andi r3,r3,0xff
   i2c0->TxRx=(addrDev<<1 +1);
 564:	30 81 00 03 	sb (r4+3),r1
   i2c0->crsr =0x90;
 568:	34 01 ff 90 	mvi r1,-112
 56c:	30 81 00 04 	sb (r4+4),r1
   while((i2c0->crsr)& I2C_TIP);
 570:	40 81 00 04 	lbu r1,(r4+4)
 574:	20 21 00 02 	andi r1,r1,0x2
 578:	5c 20 ff fe 	bne r1,r0,570 <_Z9i2c_writeccc+0x2c>
   i2c0->TxRx=addrReg;
 57c:	30 82 00 03 	sb (r4+3),r2
   i2c0->crsr =0x10;
 580:	34 01 00 10 	mvi r1,16
 584:	30 81 00 04 	sb (r4+4),r1
   while((i2c0->crsr)& I2C_TIP);
 588:	40 81 00 04 	lbu r1,(r4+4)
 58c:	20 21 00 02 	andi r1,r1,0x2
 590:	5c 20 ff fe 	bne r1,r0,588 <_Z9i2c_writeccc+0x44>
   
   i2c0->TxRx=dat;
 594:	30 83 00 03 	sb (r4+3),r3
   i2c0->crsr =0x10;
 598:	34 01 00 10 	mvi r1,16
 59c:	30 81 00 04 	sb (r4+4),r1
   while((i2c0->crsr)& I2C_TIP);
 5a0:	40 81 00 04 	lbu r1,(r4+4)
 5a4:	20 21 00 02 	andi r1,r1,0x2
 5a8:	5c 20 ff fe 	bne r1,r0,5a0 <_Z9i2c_writeccc+0x5c>
//........... todo byte 70 9

   i2c0->TxRx=dat; // last byte
 5ac:	30 83 00 03 	sb (r4+3),r3
   i2c0->crsr =0x50;
 5b0:	34 01 00 50 	mvi r1,80
 5b4:	30 81 00 04 	sb (r4+4),r1
   while((i2c0->crsr)& I2C_TIP);
 5b8:	40 81 00 04 	lbu r1,(r4+4)
 5bc:	20 21 00 02 	andi r1,r1,0x2
 5c0:	5c 20 ff fe 	bne r1,r0,5b8 <_Z9i2c_writeccc+0x74>
//7

}
 5c4:	c3 a0 00 00 	ret

000005c8 <_ZN3pwm7pwm_selEicb>:
#include "pwm.h"
#include "soc-hw.h"

void pwm::pwm_sel(int b, char c, bool en){
 5c8:	37 9c ff e8 	addi sp,sp,-24
 5cc:	5b 8b 00 18 	sw (sp+24),r11
 5d0:	5b 8c 00 14 	sw (sp+20),r12
 5d4:	5b 8d 00 10 	sw (sp+16),r13
 5d8:	5b 8e 00 0c 	sw (sp+12),r14
 5dc:	5b 8f 00 08 	sw (sp+8),r15
 5e0:	5b 9d 00 04 	sw (sp+4),ra
uint8_t Rd=0;
uint8_t Wr=1;
uint32_t dint=1000000;
uint32_t dind;

uint32_t e=b*12;
 5e4:	08 4b 00 0c 	muli r11,r2,12
void pwm::pwm_sel(int b, char c, bool en){
 5e8:	20 63 00 ff 	andi r3,r3,0xff
uint32_t t=e+4;

if(c==0x11){
dind=0x36;
}
if(c==0x12){
 5ec:	34 01 00 12 	mvi r1,18
void pwm::pwm_sel(int b, char c, bool en){
 5f0:	20 8f 00 ff 	andi r15,r4,0xff
uint32_t d=e+8;
 5f4:	35 6d 00 08 	addi r13,r11,8
uint32_t t=e+4;
 5f8:	35 6e 00 04 	addi r14,r11,4
dind=0x83;
 5fc:	34 0c 00 83 	mvi r12,131
if(c==0x12){
 600:	44 61 00 04 	be r3,r1,610 <_ZN3pwm7pwm_selEicb+0x48>
}
if(c==0x10){
 604:	34 01 00 10 	mvi r1,16
dind=0xda;
 608:	34 0c 00 da 	mvi r12,218
if(c==0x10){
 60c:	5c 61 00 1a 	bne r3,r1,674 <_ZN3pwm7pwm_selEicb+0xac>
d=e+8;
t=e+4;
}


pwm_wr(Wr); pwm_rd(Rd);
 610:	34 01 00 01 	mvi r1,1
 614:	fb ff ff 40 	calli 314 <_Z6pwm_wrh>
 618:	34 01 00 00 	mvi r1,0
 61c:	fb ff ff 31 	calli 2e0 <_Z6pwm_rdh>
pwm_addr(t); pwm_din(dint);
 620:	b9 c0 08 00 	mv r1,r14
 624:	fb ff ff 36 	calli 2fc <_Z8pwm_addrj>
 628:	38 01 42 40 	mvu r1,0x4240
 62c:	78 21 00 0f 	orhi r1,r1,0xf
 630:	fb ff ff 40 	calli 330 <_Z7pwm_dinj>

pwm_addr(d); pwm_din(dind);
 634:	b9 a0 08 00 	mv r1,r13
 638:	fb ff ff 31 	calli 2fc <_Z8pwm_addrj>
 63c:	b9 80 08 00 	mv r1,r12
 640:	fb ff ff 3c 	calli 330 <_Z7pwm_dinj>

pwm_addr(e); pwm_din(en);
 644:	b9 60 08 00 	mv r1,r11
 648:	fb ff ff 2d 	calli 2fc <_Z8pwm_addrj>
 64c:	b9 e0 08 00 	mv r1,r15
 650:	fb ff ff 38 	calli 330 <_Z7pwm_dinj>


};
 654:	2b 9d 00 04 	lw ra,(sp+4)
 658:	2b 8b 00 18 	lw r11,(sp+24)
 65c:	2b 8c 00 14 	lw r12,(sp+20)
 660:	2b 8d 00 10 	lw r13,(sp+16)
 664:	2b 8e 00 0c 	lw r14,(sp+12)
 668:	2b 8f 00 08 	lw r15,(sp+8)
 66c:	37 9c 00 18 	addi sp,sp,24
 670:	c3 a0 00 00 	ret
if(c==0x13){
 674:	34 01 00 13 	mvi r1,19
 678:	5c 61 00 07 	bne r3,r1,694 <_ZN3pwm7pwm_selEicb+0xcc>
d=e+8;
 67c:	35 6d 00 38 	addi r13,r11,56
t=e+4;
 680:	35 6e 00 34 	addi r14,r11,52
dind=180000;
 684:	38 0c bf 20 	mvu r12,0xbf20
 688:	79 8c 00 02 	orhi r12,r12,0x2
e=e+48;
 68c:	35 6b 00 30 	addi r11,r11,48
 690:	e3 ff ff e0 	bi 610 <_ZN3pwm7pwm_selEicb+0x48>
if(c==0x14){
 694:	34 01 00 14 	mvi r1,20
 698:	34 0c 00 36 	mvi r12,54
 69c:	5c 61 ff dd 	bne r3,r1,610 <_ZN3pwm7pwm_selEicb+0x48>
d=e+8;
 6a0:	35 6d 00 38 	addi r13,r11,56
t=e+4;
 6a4:	35 6e 00 34 	addi r14,r11,52
dind=100000;
 6a8:	38 0c 86 a0 	mvu r12,0x86a0
 6ac:	79 8c 00 01 	orhi r12,r12,0x1
e=e+48;
 6b0:	35 6b 00 30 	addi r11,r11,48
 6b4:	e3 ff ff d7 	bi 610 <_ZN3pwm7pwm_selEicb+0x48>

000006b8 <_ZN3pwm5brazoEc>:

int pwm::brazo(char d){
 6b8:	20 42 00 ff 	andi r2,r2,0xff
int m;
if(d==0x01){m=0;}
if(d==0x02){m=1;}
 6bc:	34 03 00 02 	mvi r3,2
 6c0:	34 01 00 01 	mvi r1,1
 6c4:	44 43 00 04 	be r2,r3,6d4 <_ZN3pwm5brazoEc+0x1c>
if(d==0x03){m=2;}
 6c8:	34 03 00 03 	mvi r3,3
 6cc:	34 01 00 02 	mvi r1,2
 6d0:	5c 43 00 02 	bne r2,r3,6d8 <_ZN3pwm5brazoEc+0x20>
if(d==0x04){m=3;}
return m;
};
 6d4:	c3 a0 00 00 	ret
if(d==0x04){m=3;}
 6d8:	34 03 00 04 	mvi r3,4
 6dc:	34 01 00 00 	mvi r1,0
 6e0:	5c 43 ff fd 	bne r2,r3,6d4 <_ZN3pwm5brazoEc+0x1c>
 6e4:	34 01 00 03 	mvi r1,3
};
 6e8:	c3 a0 00 00 	ret

000006ec <_ZN5timer6nsleepEi>:
void timer::nsleep(int nsec)
{
	int tcr;

	// Use timer0.1
	timer0->compare1 = (FCPU/1000000)*nsec;
 6ec:	78 03 00 00 	mvhi r3,0x0
 6f0:	38 63 08 30 	ori r3,r3,0x830
 6f4:	28 61 00 00 	lw r1,(r3+0)
 6f8:	08 42 00 32 	muli r2,r2,50
 6fc:	28 23 00 00 	lw r3,(r1+0)
	timer0->counter1 = 0;
	timer0->tcr1 = TIMER_EN;
 700:	34 01 00 08 	mvi r1,8
	timer0->compare1 = (FCPU/1000000)*nsec;
 704:	58 62 00 10 	sw (r3+16),r2
	timer0->counter1 = 0;
 708:	58 60 00 14 	sw (r3+20),r0
	timer0->tcr1 = TIMER_EN;
 70c:	58 61 00 0c 	sw (r3+12),r1

	do {
		//halt();
 		tcr = timer0->tcr1;
 710:	28 61 00 0c 	lw r1,(r3+12)
 	} while ( ! (tcr & TIMER_TRIG) );
 714:	20 21 00 01 	andi r1,r1,0x1
 718:	44 20 ff fe 	be r1,r0,710 <_ZN5timer6nsleepEi+0x24>
};
 71c:	c3 a0 00 00 	ret

00000720 <_ZN4uart9uart_initEv>:
	//uart0->lcr = 0x03;  // Line Control Register:    8N1
	//uart0->mcr = 0x00;  // Modem Control Register

	// Setup Divisor register (Fclk / Baud)
	//uart0->div = (FCPU/(57600*16));
}
 720:	c3 a0 00 00 	ret

00000724 <_ZN4uart12uart_getcharEv>:

char uart::uart_getchar()
{   
	while (! (uart0->ucr & UART_DR)) ;
 724:	78 02 00 00 	mvhi r2,0x0
 728:	38 42 08 34 	ori r2,r2,0x834
 72c:	28 41 00 00 	lw r1,(r2+0)
 730:	28 22 00 00 	lw r2,(r1+0)
 734:	28 41 00 00 	lw r1,(r2+0)
 738:	20 21 00 01 	andi r1,r1,0x1
 73c:	44 20 ff fe 	be r1,r0,734 <_ZN4uart12uart_getcharEv+0x10>
	return uart0->rxtx;
 740:	28 41 00 04 	lw r1,(r2+4)
}
 744:	20 21 00 ff 	andi r1,r1,0xff
 748:	c3 a0 00 00 	ret

0000074c <_ZN4uart12uart_putcharEc>:

void uart::uart_putchar(char c)
{
	while (uart0->ucr & UART_BUSY) ;
 74c:	78 03 00 00 	mvhi r3,0x0
 750:	38 63 08 38 	ori r3,r3,0x838
 754:	28 61 00 00 	lw r1,(r3+0)
{
 758:	20 42 00 ff 	andi r2,r2,0xff
	while (uart0->ucr & UART_BUSY) ;
 75c:	28 23 00 00 	lw r3,(r1+0)
 760:	28 61 00 00 	lw r1,(r3+0)
 764:	20 21 00 10 	andi r1,r1,0x10
 768:	5c 20 ff fe 	bne r1,r0,760 <_ZN4uart12uart_putcharEc+0x14>
	uart0->rxtx = c;
 76c:	58 62 00 04 	sw (r3+4),r2
}
 770:	c3 a0 00 00 	ret

00000774 <_ZN4uart11uart_putstrEPc>:

void uart::uart_putstr(char *str)
{
	char *c = str;
	while(*c) {
 774:	40 44 00 00 	lbu r4,(r2+0)
 778:	44 80 00 0c 	be r4,r0,7a8 <_ZN4uart11uart_putstrEPc+0x34>
	while (uart0->ucr & UART_BUSY) ;
 77c:	78 03 00 00 	mvhi r3,0x0
 780:	38 63 08 3c 	ori r3,r3,0x83c
 784:	28 61 00 00 	lw r1,(r3+0)
 788:	28 23 00 00 	lw r3,(r1+0)
 78c:	28 61 00 00 	lw r1,(r3+0)
 790:	20 21 00 10 	andi r1,r1,0x10
 794:	5c 20 ff fe 	bne r1,r0,78c <_ZN4uart11uart_putstrEPc+0x18>
	uart0->rxtx = c;
 798:	58 64 00 04 	sw (r3+4),r4
		uart_putchar(*c);
		c++;
 79c:	34 42 00 01 	addi r2,r2,1
	while(*c) {
 7a0:	40 44 00 00 	lbu r4,(r2+0)
 7a4:	5c 80 ff fa 	bne r4,r0,78c <_ZN4uart11uart_putstrEPc+0x18>
	}
}
 7a8:	c3 a0 00 00 	ret

000007ac <_ZN4uart11uart_getintEv>:

int uart::uart_getint()
{   
	while (! (uart0->ucr & UART_DR)) ;
 7ac:	78 02 00 00 	mvhi r2,0x0
 7b0:	38 42 08 40 	ori r2,r2,0x840
 7b4:	28 41 00 00 	lw r1,(r2+0)
 7b8:	28 22 00 00 	lw r2,(r1+0)
 7bc:	28 41 00 00 	lw r1,(r2+0)
 7c0:	20 21 00 01 	andi r1,r1,0x1
 7c4:	44 20 ff fe 	be r1,r0,7bc <_ZN4uart11uart_getintEv+0x10>
	return uart0->rxtx;
 7c8:	28 41 00 04 	lw r1,(r2+4)
}
 7cc:	c3 a0 00 00 	ret
