
image:     file format elf32-lm32

Sections:
Idx Name          Size      VMA       LMA       File off  Algn
  0 .text         00000a48  00000000  00000000  00000054  2**2
                  CONTENTS, ALLOC, LOAD, CODE
  1 .rodata       00000098  00000a48  00000a48  00000a9c  2**2
                  CONTENTS, ALLOC, LOAD, READONLY, DATA
  2 .data         00000018  00000ae0  00000ae0  00000b34  2**2
                  CONTENTS, ALLOC, LOAD, DATA
  3 .bss          00000084  00000af8  00000af8  00000b4c  2**2
                  ALLOC
  4 .debug_frame  000003bc  00000000  00000000  00000b4c  2**2
                  CONTENTS, READONLY, DEBUGGING
  5 .debug_info   00001e2f  00000000  00000000  00000f08  2**0
                  CONTENTS, READONLY, DEBUGGING
  6 .debug_abbrev 000009b7  00000000  00000000  00002d37  2**0
                  CONTENTS, READONLY, DEBUGGING
  7 .debug_loc    000005f1  00000000  00000000  000036ee  2**0
                  CONTENTS, READONLY, DEBUGGING
  8 .debug_aranges 000000c0  00000000  00000000  00003cdf  2**0
                  CONTENTS, READONLY, DEBUGGING
  9 .debug_ranges 00000028  00000000  00000000  00003d9f  2**0
                  CONTENTS, READONLY, DEBUGGING
 10 .debug_line   00000a1d  00000000  00000000  00003dc7  2**0
                  CONTENTS, READONLY, DEBUGGING
 11 .debug_str    000006fe  00000000  00000000  000047e4  2**0
                  CONTENTS, READONLY, DEBUGGING
 12 .comment      00000011  00000000  00000000  00004ee2  2**0
                  CONTENTS, READONLY

Disassembly of section .text:

00000000 <_ftext>:
   0:	98 00 00 00 	xor r0,r0,r0
   4:	d0 00 00 00 	wcsr IE,r0
   8:	78 01 00 00 	mvhi r1,0x0
   c:	38 21 00 00 	ori r1,r1,0x0
  10:	d0 e1 00 00 	wcsr EBA,r1
  14:	f8 00 00 33 	calli e0 <_crt0>
  18:	34 00 00 00 	nop
  1c:	34 00 00 00 	nop

00000020 <_breakpoint_handler>:
  20:	34 00 00 00 	nop
  24:	34 00 00 00 	nop
  28:	34 00 00 00 	nop
  2c:	34 00 00 00 	nop
  30:	34 00 00 00 	nop
  34:	34 00 00 00 	nop
  38:	34 00 00 00 	nop
  3c:	34 00 00 00 	nop

00000040 <_ibuserror_handler>:
  40:	34 00 00 00 	nop
  44:	34 00 00 00 	nop
  48:	34 00 00 00 	nop
  4c:	34 00 00 00 	nop
  50:	34 00 00 00 	nop
  54:	34 00 00 00 	nop
  58:	34 00 00 00 	nop
  5c:	34 00 00 00 	nop

00000060 <_watchpoint_handler>:
  60:	34 00 00 00 	nop
  64:	34 00 00 00 	nop
  68:	34 00 00 00 	nop
  6c:	34 00 00 00 	nop
  70:	34 00 00 00 	nop
  74:	34 00 00 00 	nop
  78:	34 00 00 00 	nop
  7c:	34 00 00 00 	nop

00000080 <_dbuserror_handler>:
  80:	34 00 00 00 	nop
  84:	34 00 00 00 	nop
  88:	34 00 00 00 	nop
  8c:	34 00 00 00 	nop
  90:	34 00 00 00 	nop
  94:	34 00 00 00 	nop
  98:	34 00 00 00 	nop
  9c:	34 00 00 00 	nop

000000a0 <_divzero_handler>:
  a0:	34 00 00 00 	nop
  a4:	34 00 00 00 	nop
  a8:	34 00 00 00 	nop
  ac:	34 00 00 00 	nop
  b0:	34 00 00 00 	nop
  b4:	34 00 00 00 	nop
  b8:	34 00 00 00 	nop
  bc:	34 00 00 00 	nop

000000c0 <_scall_handler>:
  c0:	34 00 00 00 	nop
  c4:	34 00 00 00 	nop
  c8:	34 00 00 00 	nop
  cc:	34 00 00 00 	nop
  d0:	34 00 00 00 	nop
  d4:	34 00 00 00 	nop
  d8:	34 00 00 00 	nop
  dc:	34 00 00 00 	nop

000000e0 <_crt0>:
  e0:	78 1c 00 00 	mvhi sp,0x0
  e4:	3b 9c 0f fc 	ori sp,sp,0xffc
  e8:	78 1a 00 00 	mvhi gp,0x0
  ec:	3b 5a 0b 00 	ori gp,gp,0xb00
  f0:	78 01 00 00 	mvhi r1,0x0
  f4:	38 21 0a f8 	ori r1,r1,0xaf8
  f8:	78 03 00 00 	mvhi r3,0x0
  fc:	38 63 0b 7c 	ori r3,r3,0xb7c

00000100 <.clearBSS>:
 100:	44 23 00 04 	be r1,r3,110 <.callMain>
 104:	58 20 00 00 	sw (r1+0),r0
 108:	34 21 00 04 	addi r1,r1,4
 10c:	e3 ff ff fd 	bi 100 <.clearBSS>

00000110 <.callMain>:
 110:	34 01 00 00 	mvi r1,0
 114:	34 02 00 00 	mvi r2,0
 118:	34 03 00 00 	mvi r3,0
 11c:	f8 00 00 33 	calli 1e8 <main>

00000120 <irq_enable>:
 120:	34 01 00 01 	mvi r1,1
 124:	d0 01 00 00 	wcsr IE,r1
 128:	c3 a0 00 00 	ret

0000012c <irq_disable>:
 12c:	34 01 00 00 	mvi r1,0
 130:	d0 01 00 00 	wcsr IE,r1
 134:	c3 a0 00 00 	ret

00000138 <irq_set_mask>:
 138:	d0 21 00 00 	wcsr IM,r1
 13c:	c3 a0 00 00 	ret

00000140 <irq_get_mask>:
 140:	90 20 08 00 	rcsr r1,IM
 144:	c3 a0 00 00 	ret

00000148 <jump>:
 148:	c0 20 00 00 	b r1

0000014c <halt>:
 14c:	e0 00 00 00 	bi 14c <halt>

00000150 <_save_all>:
 150:	37 9c ff 80 	addi sp,sp,-128
 154:	5b 81 00 04 	sw (sp+4),r1
 158:	5b 82 00 08 	sw (sp+8),r2
 15c:	5b 83 00 0c 	sw (sp+12),r3
 160:	5b 84 00 10 	sw (sp+16),r4
 164:	5b 85 00 14 	sw (sp+20),r5
 168:	5b 86 00 18 	sw (sp+24),r6
 16c:	5b 87 00 1c 	sw (sp+28),r7
 170:	5b 88 00 20 	sw (sp+32),r8
 174:	5b 89 00 24 	sw (sp+36),r9
 178:	5b 8a 00 28 	sw (sp+40),r10
 17c:	5b 9e 00 78 	sw (sp+120),ea
 180:	5b 9f 00 7c 	sw (sp+124),ba
 184:	2b 81 00 80 	lw r1,(sp+128)
 188:	5b 81 00 74 	sw (sp+116),r1
 18c:	bb 80 08 00 	mv r1,sp
 190:	34 21 00 80 	addi r1,r1,128
 194:	5b 81 00 70 	sw (sp+112),r1
 198:	c3 a0 00 00 	ret

0000019c <_restore_all_and_eret>:
 19c:	2b 81 00 04 	lw r1,(sp+4)
 1a0:	2b 82 00 08 	lw r2,(sp+8)
 1a4:	2b 83 00 0c 	lw r3,(sp+12)
 1a8:	2b 84 00 10 	lw r4,(sp+16)
 1ac:	2b 85 00 14 	lw r5,(sp+20)
 1b0:	2b 86 00 18 	lw r6,(sp+24)
 1b4:	2b 87 00 1c 	lw r7,(sp+28)
 1b8:	2b 88 00 20 	lw r8,(sp+32)
 1bc:	2b 89 00 24 	lw r9,(sp+36)
 1c0:	2b 8a 00 28 	lw r10,(sp+40)
 1c4:	2b 9d 00 74 	lw ra,(sp+116)
 1c8:	2b 9e 00 78 	lw ea,(sp+120)
 1cc:	2b 9f 00 7c 	lw ba,(sp+124)
 1d0:	2b 9c 00 70 	lw sp,(sp+112)
 1d4:	c3 c0 00 00 	eret

000001d8 <get_sp>:
 1d8:	bb 80 08 00 	mv r1,sp
 1dc:	c3 a0 00 00 	ret

000001e0 <get_gp>:
 1e0:	bb 40 08 00 	mv r1,gp
 1e4:	c3 a0 00 00 	ret

000001e8 <main>:
#include "uart.h"
#include "camera.h"


int main()
{	
 1e8:	37 9c ff cc 	addi sp,sp,-52
 1ec:	5b 8b 00 14 	sw (sp+20),r11
 1f0:	5b 8c 00 10 	sw (sp+16),r12
 1f4:	5b 8d 00 0c 	sw (sp+12),r13
 1f8:	5b 8e 00 08 	sw (sp+8),r14
 1fc:	5b 9d 00 04 	sw (sp+4),ra
   while(1)
   {
	
		com=comando.uart_getchar();	
		comando.uart_putchar(com);
		if(com==0xC0)
 200:	34 0c 00 c0 	mvi r12,192
			comando.uart_putchar(0xC0);//TOMAR
			camara.cam_tomar(off);
			tiempo.nsleep(30000);
			camara.cam_tomar(on);		
		}
		if(com==0XC1)//VER-ENVIAR
 204:	34 0d 00 c1 	mvi r13,193
				}
			camara.cam_ver1(off);//OE		
			comando.uart_putchar(0XFE);
			camara.cam_ver(off);//RCK				
		}
		if(com==0xC2)//RESET
 208:	34 0e 00 c2 	mvi r14,194
		com=comando.uart_getchar();	
 20c:	37 81 00 1c 	addi r1,sp,28
 210:	f8 00 01 bb 	calli 8fc <_ZN4uart12uart_getcharEv>
 214:	b8 20 58 00 	mv r11,r1
		comando.uart_putchar(com);
 218:	b8 20 10 00 	mv r2,r1
 21c:	37 81 00 1c 	addi r1,sp,28
 220:	f8 00 01 c1 	calli 924 <_ZN4uart12uart_putcharEc>
		if(com==0xC0)
 224:	45 6c 00 1b 	be r11,r12,290 <main+0xa8>
		if(com==0XC1)//VER-ENVIAR
 228:	45 6d 00 27 	be r11,r13,2c4 <main+0xdc>
		if(com==0xC2)//RESET
 22c:	5d 6e ff f8 	bne r11,r14,20c <main+0x24>
		{
			comando.uart_putchar(0xc2);
 230:	37 81 00 1c 	addi r1,sp,28
 234:	34 02 00 c2 	mvi r2,194
 238:	f8 00 01 bb 	calli 924 <_ZN4uart12uart_putcharEc>
			camara.cam_rst(on,on);
 23c:	34 03 00 01 	mvi r3,1
 240:	37 81 00 24 	addi r1,sp,36
 244:	34 02 00 01 	mvi r2,1
 248:	f8 00 01 f4 	calli a18 <_ZN6camera7cam_rstEii>
			tiempo.nsleep(3000);
 24c:	37 81 00 18 	addi r1,sp,24
 250:	34 02 0b b8 	mvi r2,3000
 254:	f8 00 01 9c 	calli 8c4 <_ZN5timer6nsleepEi>
			comando.uart_putchar(0xc2);
 258:	37 81 00 1c 	addi r1,sp,28
 25c:	34 02 00 c2 	mvi r2,194
 260:	f8 00 01 b1 	calli 924 <_ZN4uart12uart_putcharEc>
			camara.cam_rst(off,off);		
 264:	34 02 00 00 	mvi r2,0
 268:	34 03 00 00 	mvi r3,0
 26c:	37 81 00 24 	addi r1,sp,36
 270:	f8 00 01 ea 	calli a18 <_ZN6camera7cam_rstEii>
		com=comando.uart_getchar();	
 274:	37 81 00 1c 	addi r1,sp,28
 278:	f8 00 01 a1 	calli 8fc <_ZN4uart12uart_getcharEv>
 27c:	b8 20 58 00 	mv r11,r1
		comando.uart_putchar(com);
 280:	b8 20 10 00 	mv r2,r1
 284:	37 81 00 1c 	addi r1,sp,28
 288:	f8 00 01 a7 	calli 924 <_ZN4uart12uart_putcharEc>
		if(com==0xC0)
 28c:	5d 6c ff e7 	bne r11,r12,228 <main+0x40>
			comando.uart_putchar(0xC0);//TOMAR
 290:	37 81 00 1c 	addi r1,sp,28
 294:	34 02 00 c0 	mvi r2,192
 298:	f8 00 01 a3 	calli 924 <_ZN4uart12uart_putcharEc>
			camara.cam_tomar(off);
 29c:	37 81 00 24 	addi r1,sp,36
 2a0:	34 02 00 00 	mvi r2,0
 2a4:	f8 00 01 c1 	calli 9a8 <_ZN6camera9cam_tomarEi>
			tiempo.nsleep(30000);
 2a8:	37 81 00 18 	addi r1,sp,24
 2ac:	34 02 75 30 	mvi r2,30000
 2b0:	f8 00 01 85 	calli 8c4 <_ZN5timer6nsleepEi>
			camara.cam_tomar(on);		
 2b4:	34 02 00 01 	mvi r2,1
 2b8:	37 81 00 24 	addi r1,sp,36
 2bc:	f8 00 01 bb 	calli 9a8 <_ZN6camera9cam_tomarEi>
 2c0:	e3 ff ff d3 	bi 20c <main+0x24>
			camara.cam_ver1(on);//OE		
 2c4:	34 02 00 01 	mvi r2,1
 2c8:	37 81 00 24 	addi r1,sp,36
 2cc:	f8 00 01 c5 	calli 9e0 <_ZN6camera8cam_ver1Ei>
			comando.uart_putchar(0XC1);
 2d0:	34 02 00 c1 	mvi r2,193
 2d4:	37 81 00 1c 	addi r1,sp,28
 2d8:	f8 00 01 93 	calli 924 <_ZN4uart12uart_putcharEc>
			camara.cam_ver(on);//RCK
 2dc:	34 02 00 01 	mvi r2,1
 2e0:	37 81 00 24 	addi r1,sp,36
 2e4:	f8 00 01 b8 	calli 9c4 <_ZN6camera7cam_verEi>
 2e8:	38 0b e2 80 	mvu r11,0xe280
 2ec:	79 6b 00 04 	orhi r11,r11,0x4
					dato=camara.cam_dato();
 2f0:	37 81 00 24 	addi r1,sp,36
 2f4:	f8 00 01 c2 	calli 9fc <_ZN6camera8cam_datoEv>
					comando.uart_putchar(dato);
 2f8:	b8 20 10 00 	mv r2,r1
 2fc:	35 6b ff ff 	addi r11,r11,-1
 300:	37 81 00 1c 	addi r1,sp,28
 304:	f8 00 01 88 	calli 924 <_ZN4uart12uart_putcharEc>
				while(i<320128)
 308:	5d 60 ff fa 	bne r11,r0,2f0 <main+0x108>
			camara.cam_ver1(off);//OE		
 30c:	37 81 00 24 	addi r1,sp,36
 310:	34 02 00 00 	mvi r2,0
 314:	f8 00 01 b3 	calli 9e0 <_ZN6camera8cam_ver1Ei>
			comando.uart_putchar(0XFE);
 318:	37 81 00 1c 	addi r1,sp,28
 31c:	34 02 00 fe 	mvi r2,254
 320:	f8 00 01 81 	calli 924 <_ZN4uart12uart_putcharEc>
			camara.cam_ver(off);//RCK				
 324:	34 02 00 00 	mvi r2,0
 328:	37 81 00 24 	addi r1,sp,36
 32c:	f8 00 01 a6 	calli 9c4 <_ZN6camera7cam_verEi>
 330:	e3 ff ff b7 	bi 20c <main+0x24>

00000334 <_Z7tic_isrv>:

uint32_t tic_msec;

void tic_isr()
{
	tic_msec++;
 334:	78 01 00 00 	mvhi r1,0x0
 338:	38 21 0a 48 	ori r1,r1,0xa48
 33c:	28 22 00 00 	lw r2,(r1+0)
	timer0->tcr0     = TIMER_EN | TIMER_AR | TIMER_IRQEN;
 340:	78 04 00 00 	mvhi r4,0x0
 344:	38 84 0a 4c 	ori r4,r4,0xa4c
 348:	28 83 00 00 	lw r3,(r4+0)
	tic_msec++;
 34c:	28 41 00 00 	lw r1,(r2+0)
	timer0->tcr0     = TIMER_EN | TIMER_AR | TIMER_IRQEN;
 350:	28 63 00 00 	lw r3,(r3+0)
	tic_msec++;
 354:	34 21 00 01 	addi r1,r1,1
 358:	58 41 00 00 	sw (r2+0),r1
	timer0->tcr0     = TIMER_EN | TIMER_AR | TIMER_IRQEN;
 35c:	34 01 00 0e 	mvi r1,14
 360:	58 61 00 00 	sw (r3+0),r1
}
 364:	c3 a0 00 00 	ret

00000368 <_Z8isr_nullv>:
 368:	c3 a0 00 00 	ret

0000036c <_Z8cam_readv>:
	return cam -> d_out;
 36c:	78 02 00 00 	mvhi r2,0x0
 370:	38 42 0a 50 	ori r2,r2,0xa50
 374:	28 41 00 00 	lw r1,(r2+0)
 378:	28 21 00 00 	lw r1,(r1+0)
 37c:	28 21 00 00 	lw r1,(r1+0)
}
 380:	c3 a0 00 00 	ret

00000384 <_Z15cam_takepictureh>:
cam -> takepicture  = vtakepicture;
 384:	78 03 00 00 	mvhi r3,0x0
 388:	38 63 0a 54 	ori r3,r3,0xa54
 38c:	28 62 00 00 	lw r2,(r3+0)
void cam_takepicture (uint8_t vtakepicture ){
 390:	20 21 00 ff 	andi r1,r1,0xff
cam -> takepicture  = vtakepicture;
 394:	28 42 00 00 	lw r2,(r2+0)
 398:	30 41 00 04 	sb (r2+4),r1
}
 39c:	c3 a0 00 00 	ret

000003a0 <_Z8cam_leerj>:
cam -> leer = vleer;
 3a0:	78 03 00 00 	mvhi r3,0x0
 3a4:	38 63 0a 58 	ori r3,r3,0xa58
 3a8:	28 62 00 00 	lw r2,(r3+0)
 3ac:	28 42 00 00 	lw r2,(r2+0)
 3b0:	58 41 00 08 	sw (r2+8),r1
}
 3b4:	c3 a0 00 00 	ret

000003b8 <_Z11cam_resetwrh>:
cam -> resetwr   = vresetwr;
 3b8:	78 03 00 00 	mvhi r3,0x0
 3bc:	38 63 0a 5c 	ori r3,r3,0xa5c
 3c0:	28 62 00 00 	lw r2,(r3+0)
void cam_resetwr  (uint8_t vresetwr){
 3c4:	20 21 00 ff 	andi r1,r1,0xff
cam -> resetwr   = vresetwr;
 3c8:	28 42 00 00 	lw r2,(r2+0)
 3cc:	30 41 00 0c 	sb (r2+12),r1
}
 3d0:	c3 a0 00 00 	ret

000003d4 <_Z11cam_resetrdj>:
cam -> resetrd = vresetrd;
 3d4:	78 03 00 00 	mvhi r3,0x0
 3d8:	38 63 0a 60 	ori r3,r3,0xa60
 3dc:	28 62 00 00 	lw r2,(r3+0)
 3e0:	28 42 00 00 	lw r2,(r2+0)
 3e4:	58 41 00 10 	sw (r2+16),r1
}
 3e8:	c3 a0 00 00 	ret

000003ec <_Z9cam_leer1h>:
cam -> leer1=vleer1;
 3ec:	78 03 00 00 	mvhi r3,0x0
 3f0:	38 63 0a 64 	ori r3,r3,0xa64
 3f4:	28 62 00 00 	lw r2,(r3+0)
void cam_leer1(uint8_t vleer1){
 3f8:	20 21 00 ff 	andi r1,r1,0xff
cam -> leer1=vleer1;
 3fc:	28 42 00 00 	lw r2,(r2+0)
 400:	30 41 00 14 	sb (r2+20),r1
}
 404:	c3 a0 00 00 	ret

00000408 <_Z8pwm_readv>:
	return pwm -> d_out;
 408:	78 02 00 00 	mvhi r2,0x0
 40c:	38 42 0a 68 	ori r2,r2,0xa68
 410:	28 41 00 00 	lw r1,(r2+0)
 414:	28 21 00 00 	lw r1,(r1+0)
 418:	28 21 00 00 	lw r1,(r1+0)
}
 41c:	c3 a0 00 00 	ret

00000420 <_Z6pwm_rdh>:
pwm -> rd = vrd;
 420:	78 03 00 00 	mvhi r3,0x0
 424:	38 63 0a 6c 	ori r3,r3,0xa6c
 428:	28 62 00 00 	lw r2,(r3+0)
void pwm_rd(uint8_t vrd){
 42c:	20 21 00 ff 	andi r1,r1,0xff
pwm -> rd = vrd;
 430:	28 42 00 00 	lw r2,(r2+0)
 434:	30 41 00 04 	sb (r2+4),r1
}
 438:	c3 a0 00 00 	ret

0000043c <_Z8pwm_addrj>:
pwm -> addr = vaddr;
 43c:	78 03 00 00 	mvhi r3,0x0
 440:	38 63 0a 70 	ori r3,r3,0xa70
 444:	28 62 00 00 	lw r2,(r3+0)
 448:	28 42 00 00 	lw r2,(r2+0)
 44c:	58 41 00 08 	sw (r2+8),r1
}
 450:	c3 a0 00 00 	ret

00000454 <_Z6pwm_wrh>:
pwm -> wr = vwr;
 454:	78 03 00 00 	mvhi r3,0x0
 458:	38 63 0a 74 	ori r3,r3,0xa74
 45c:	28 62 00 00 	lw r2,(r3+0)
void pwm_wr(uint8_t vwr){
 460:	20 21 00 ff 	andi r1,r1,0xff
pwm -> wr = vwr;
 464:	28 42 00 00 	lw r2,(r2+0)
 468:	30 41 00 0c 	sb (r2+12),r1
}
 46c:	c3 a0 00 00 	ret

00000470 <_Z7pwm_dinj>:
pwm -> d_in = vd_in;
 470:	78 03 00 00 	mvhi r3,0x0
 474:	38 63 0a 78 	ori r3,r3,0xa78
 478:	28 62 00 00 	lw r2,(r3+0)
 47c:	28 42 00 00 	lw r2,(r2+0)
 480:	58 41 00 10 	sw (r2+16),r1
}
 484:	c3 a0 00 00 	ret

00000488 <_Z15gpio_config_dirj>:
	gpio0 -> dir = vdir;
 488:	78 03 00 00 	mvhi r3,0x0
 48c:	38 63 0a 7c 	ori r3,r3,0xa7c
 490:	28 62 00 00 	lw r2,(r3+0)
 494:	28 42 00 00 	lw r2,(r2+0)
 498:	58 41 00 08 	sw (r2+8),r1
}
 49c:	c3 a0 00 00 	ret

000004a0 <_Z10gpio_writej>:
	gpio0 -> wr = vpins;
 4a0:	78 03 00 00 	mvhi r3,0x0
 4a4:	38 63 0a 80 	ori r3,r3,0xa80
 4a8:	28 62 00 00 	lw r2,(r3+0)
 4ac:	28 42 00 00 	lw r2,(r2+0)
 4b0:	58 41 00 04 	sw (r2+4),r1
}
 4b4:	c3 a0 00 00 	ret

000004b8 <_Z9gpio_readv>:
	return gpio0 -> rd;
 4b8:	78 02 00 00 	mvhi r2,0x0
 4bc:	38 42 0a 84 	ori r2,r2,0xa84
 4c0:	28 41 00 00 	lw r1,(r2+0)
 4c4:	28 21 00 00 	lw r1,(r1+0)
 4c8:	28 21 00 00 	lw r1,(r1+0)
}
 4cc:	c3 a0 00 00 	ret

000004d0 <_Z11irq_handlerj>:
{
 4d0:	37 9c ff f0 	addi sp,sp,-16
 4d4:	5b 8b 00 10 	sw (sp+16),r11
 4d8:	5b 8c 00 0c 	sw (sp+12),r12
 4dc:	5b 8d 00 08 	sw (sp+8),r13
 4e0:	5b 9d 00 04 	sw (sp+4),ra
 4e4:	78 02 00 00 	mvhi r2,0x0
 4e8:	38 42 0a 88 	ori r2,r2,0xa88
 4ec:	28 4b 00 00 	lw r11,(r2+0)
 4f0:	b8 20 60 00 	mv r12,r1
 4f4:	35 6d 00 80 	addi r13,r11,128
		if (pending & 0x01) (*isr_table[i])();
 4f8:	21 81 00 01 	andi r1,r12,0x1
 4fc:	44 20 00 03 	be r1,r0,508 <_Z11irq_handlerj+0x38>
 500:	29 61 00 00 	lw r1,(r11+0)
 504:	d8 20 00 00 	call r1
 508:	35 6b 00 04 	addi r11,r11,4
		pending >>= 1;
 50c:	01 8c 00 01 	srui r12,r12,1
	for(i=0; i<32; i++) {
 510:	5d ab ff fa 	bne r13,r11,4f8 <_Z11irq_handlerj+0x28>
}
 514:	2b 9d 00 04 	lw ra,(sp+4)
 518:	2b 8b 00 10 	lw r11,(sp+16)
 51c:	2b 8c 00 0c 	lw r12,(sp+12)
 520:	2b 8d 00 08 	lw r13,(sp+8)
 524:	37 9c 00 10 	addi sp,sp,16
 528:	c3 a0 00 00 	ret

0000052c <_Z8isr_initv>:
{
 52c:	78 02 00 00 	mvhi r2,0x0
 530:	38 42 0a 8c 	ori r2,r2,0xa8c
 534:	28 41 00 00 	lw r1,(r2+0)
 538:	78 02 00 00 	mvhi r2,0x0
 53c:	38 42 0a 90 	ori r2,r2,0xa90
 540:	28 43 00 00 	lw r3,(r2+0)
 544:	34 22 00 80 	addi r2,r1,128
		isr_table[i] = &isr_null;
 548:	58 23 00 00 	sw (r1+0),r3
 54c:	34 21 00 04 	addi r1,r1,4
	for(i=0; i<32; i++)
 550:	5c 22 ff fe 	bne r1,r2,548 <_Z8isr_initv+0x1c>
}
 554:	c3 a0 00 00 	ret

00000558 <_Z12isr_registeriPFvvE>:
	isr_table[irq] = isr;
 558:	78 04 00 00 	mvhi r4,0x0
 55c:	38 84 0a 94 	ori r4,r4,0xa94
 560:	3c 23 00 02 	sli r3,r1,2
 564:	28 81 00 00 	lw r1,(r4+0)
 568:	b4 23 08 00 	add r1,r1,r3
 56c:	58 22 00 00 	sw (r1+0),r2
}
 570:	c3 a0 00 00 	ret

00000574 <_Z14isr_unregisteri>:
	isr_table[irq] = &isr_null;
 574:	78 03 00 00 	mvhi r3,0x0
 578:	38 63 0a 98 	ori r3,r3,0xa98
 57c:	3c 22 00 02 	sli r2,r1,2
 580:	28 61 00 00 	lw r1,(r3+0)
 584:	78 03 00 00 	mvhi r3,0x0
 588:	38 63 0a 9c 	ori r3,r3,0xa9c
 58c:	b4 22 08 00 	add r1,r1,r2
 590:	28 62 00 00 	lw r2,(r3+0)
 594:	58 22 00 00 	sw (r1+0),r2
}
 598:	c3 a0 00 00 	ret

0000059c <_Z6msleepj>:
	timer0->compare1 = (FCPU/1000)*msec;
 59c:	78 03 00 00 	mvhi r3,0x0
 5a0:	38 02 c3 50 	mvu r2,0xc350
 5a4:	38 63 0a a0 	ori r3,r3,0xaa0
 5a8:	88 22 08 00 	mul r1,r1,r2
 5ac:	28 62 00 00 	lw r2,(r3+0)
 5b0:	28 42 00 00 	lw r2,(r2+0)
 5b4:	58 41 00 10 	sw (r2+16),r1
	timer0->counter1 = 0;
 5b8:	58 40 00 14 	sw (r2+20),r0
	timer0->tcr1 = TIMER_EN;
 5bc:	34 01 00 08 	mvi r1,8
 5c0:	58 41 00 0c 	sw (r2+12),r1
 		tcr = timer0->tcr1;
 5c4:	28 41 00 0c 	lw r1,(r2+12)
 	} while ( ! (tcr & TIMER_TRIG) );
 5c8:	20 21 00 01 	andi r1,r1,0x1
 5cc:	44 20 ff fe 	be r1,r0,5c4 <_Z6msleepj+0x28>
}
 5d0:	c3 a0 00 00 	ret

000005d4 <_Z6nsleepj>:
	timer0->compare1 = (FCPU/1000000)*nsec;
 5d4:	78 03 00 00 	mvhi r3,0x0
 5d8:	38 63 0a a4 	ori r3,r3,0xaa4
 5dc:	28 62 00 00 	lw r2,(r3+0)
 5e0:	08 21 00 32 	muli r1,r1,50
 5e4:	28 42 00 00 	lw r2,(r2+0)
 5e8:	58 41 00 10 	sw (r2+16),r1
	timer0->counter1 = 0;
 5ec:	58 40 00 14 	sw (r2+20),r0
	timer0->tcr1 = TIMER_EN;
 5f0:	34 01 00 08 	mvi r1,8
 5f4:	58 41 00 0c 	sw (r2+12),r1
 		tcr = timer0->tcr1;
 5f8:	28 41 00 0c 	lw r1,(r2+12)
 	} while ( ! (tcr & TIMER_TRIG) );
 5fc:	20 21 00 01 	andi r1,r1,0x1
 600:	44 20 ff fe 	be r1,r0,5f8 <_Z6nsleepj+0x24>
}
 604:	c3 a0 00 00 	ret

00000608 <_Z8tic_initv>:
void tic_init()
{
	tic_msec = 0;

	// Setup timer0.0
	timer0->compare0 = (FCPU/10000);
 608:	78 02 00 00 	mvhi r2,0x0
 60c:	38 42 0a a8 	ori r2,r2,0xaa8
 610:	28 41 00 00 	lw r1,(r2+0)
	tic_msec = 0;
 614:	78 03 00 00 	mvhi r3,0x0
	timer0->compare0 = (FCPU/10000);
 618:	34 02 13 88 	mvi r2,5000
 61c:	28 21 00 00 	lw r1,(r1+0)
	tic_msec = 0;
 620:	38 63 0a ac 	ori r3,r3,0xaac
	timer0->compare0 = (FCPU/10000);
 624:	58 22 00 04 	sw (r1+4),r2
	tic_msec = 0;
 628:	28 62 00 00 	lw r2,(r3+0)
	timer0->counter0 = 0;
 62c:	58 20 00 08 	sw (r1+8),r0
	isr_table[irq] = isr;
 630:	78 03 00 00 	mvhi r3,0x0
	tic_msec = 0;
 634:	58 40 00 00 	sw (r2+0),r0
	timer0->tcr0     = TIMER_EN | TIMER_AR | TIMER_IRQEN;
 638:	34 02 00 0e 	mvi r2,14
 63c:	58 22 00 00 	sw (r1+0),r2
	isr_table[irq] = isr;
 640:	78 02 00 00 	mvhi r2,0x0
 644:	38 42 0a b0 	ori r2,r2,0xab0
 648:	38 63 0a b4 	ori r3,r3,0xab4
 64c:	28 41 00 00 	lw r1,(r2+0)
 650:	28 62 00 00 	lw r2,(r3+0)
 654:	58 22 00 04 	sw (r1+4),r2

	isr_register(1, &tic_isr);
}
 658:	c3 a0 00 00 	ret

0000065c <_Z9uart_initv>:
	//uart0->lcr = 0x03;  // Line Control Register:    8N1
	//uart0->mcr = 0x00;  // Modem Control Register

	// Setup Divisor register (Fclk / Baud)
	//uart0->div = (FCPU/(57600*16));
}
 65c:	c3 a0 00 00 	ret

00000660 <_Z12uart_getcharv>:

char uart_getchar()
{   
	while (! (uart0->ucr & UART_DR)) ;
 660:	78 02 00 00 	mvhi r2,0x0
 664:	38 42 0a b8 	ori r2,r2,0xab8
 668:	28 41 00 00 	lw r1,(r2+0)
 66c:	28 22 00 00 	lw r2,(r1+0)
 670:	28 41 00 00 	lw r1,(r2+0)
 674:	20 21 00 01 	andi r1,r1,0x1
 678:	44 20 ff fe 	be r1,r0,670 <_Z12uart_getcharv+0x10>
	return uart0->rxtx;
 67c:	28 41 00 04 	lw r1,(r2+4)
}
 680:	20 21 00 ff 	andi r1,r1,0xff
 684:	c3 a0 00 00 	ret

00000688 <_Z12uart_putcharc>:

void uart_putchar(char c)
{
	while (uart0->ucr & UART_BUSY) ;
 688:	78 03 00 00 	mvhi r3,0x0
 68c:	38 63 0a bc 	ori r3,r3,0xabc
 690:	28 62 00 00 	lw r2,(r3+0)
{
 694:	20 21 00 ff 	andi r1,r1,0xff
	while (uart0->ucr & UART_BUSY) ;
 698:	28 43 00 00 	lw r3,(r2+0)
 69c:	28 62 00 00 	lw r2,(r3+0)
 6a0:	20 42 00 10 	andi r2,r2,0x10
 6a4:	5c 40 ff fe 	bne r2,r0,69c <_Z12uart_putcharc+0x14>
	uart0->rxtx = c;
 6a8:	58 61 00 04 	sw (r3+4),r1
}
 6ac:	c3 a0 00 00 	ret

000006b0 <_Z11uart_putstrPc>:

void uart_putstr(char *str)
{
	char *c = str;
	while(*c) {
 6b0:	40 24 00 00 	lbu r4,(r1+0)
 6b4:	44 80 00 0c 	be r4,r0,6e4 <_Z11uart_putstrPc+0x34>
	while (uart0->ucr & UART_BUSY) ;
 6b8:	78 03 00 00 	mvhi r3,0x0
 6bc:	38 63 0a c0 	ori r3,r3,0xac0
 6c0:	28 62 00 00 	lw r2,(r3+0)
 6c4:	28 43 00 00 	lw r3,(r2+0)
 6c8:	28 62 00 00 	lw r2,(r3+0)
 6cc:	20 42 00 10 	andi r2,r2,0x10
 6d0:	5c 40 ff fe 	bne r2,r0,6c8 <_Z11uart_putstrPc+0x18>
	uart0->rxtx = c;
 6d4:	58 64 00 04 	sw (r3+4),r4
		uart_putchar(*c);
		c++;
 6d8:	34 21 00 01 	addi r1,r1,1
	while(*c) {
 6dc:	40 24 00 00 	lbu r4,(r1+0)
 6e0:	5c 80 ff fa 	bne r4,r0,6c8 <_Z11uart_putstrPc+0x18>
	}
}
 6e4:	c3 a0 00 00 	ret

000006e8 <_Z8i2c_initv>:
 * I2C Functions
 */
void i2c_init()
{

	i2c0->prerl =0x00;
 6e8:	78 02 00 00 	mvhi r2,0x0
 6ec:	38 42 0a c4 	ori r2,r2,0xac4
 6f0:	28 41 00 00 	lw r1,(r2+0)
	i2c0->prerh =0x50;
 6f4:	34 02 00 50 	mvi r2,80
	i2c0->prerl =0x00;
 6f8:	28 21 00 00 	lw r1,(r1+0)
 6fc:	30 20 00 00 	sb (r1+0),r0
	i2c0->prerh =0x50;
 700:	30 22 00 01 	sb (r1+1),r2
	i2c0->ctr =0x80;
 704:	34 02 ff 80 	mvi r2,-128
 708:	30 22 00 02 	sb (r1+2),r2


}
 70c:	c3 a0 00 00 	ret

00000710 <_Z9i2c_writeccc>:

void i2c_write(char addrDev, char addrReg, char dat)
{

   i2c0->TxRx=(addrDev<<1 +1);
 710:	78 05 00 00 	mvhi r5,0x0
 714:	38 a5 0a c8 	ori r5,r5,0xac8
 718:	28 a4 00 00 	lw r4,(r5+0)
 71c:	3c 21 00 02 	sli r1,r1,2
{
 720:	20 42 00 ff 	andi r2,r2,0xff
   i2c0->TxRx=(addrDev<<1 +1);
 724:	28 84 00 00 	lw r4,(r4+0)
 728:	20 21 00 fc 	andi r1,r1,0xfc
{
 72c:	20 63 00 ff 	andi r3,r3,0xff
   i2c0->TxRx=(addrDev<<1 +1);
 730:	30 81 00 03 	sb (r4+3),r1
   i2c0->crsr =0x90;
 734:	34 01 ff 90 	mvi r1,-112
 738:	30 81 00 04 	sb (r4+4),r1
   while((i2c0->crsr)& I2C_TIP);
 73c:	40 81 00 04 	lbu r1,(r4+4)
 740:	20 21 00 02 	andi r1,r1,0x2
 744:	5c 20 ff fe 	bne r1,r0,73c <_Z9i2c_writeccc+0x2c>
   i2c0->TxRx=addrReg;
 748:	30 82 00 03 	sb (r4+3),r2
   i2c0->crsr =0x10;
 74c:	34 01 00 10 	mvi r1,16
 750:	30 81 00 04 	sb (r4+4),r1
   while((i2c0->crsr)& I2C_TIP);
 754:	40 81 00 04 	lbu r1,(r4+4)
 758:	20 21 00 02 	andi r1,r1,0x2
 75c:	5c 20 ff fe 	bne r1,r0,754 <_Z9i2c_writeccc+0x44>
   
   i2c0->TxRx=dat;
 760:	30 83 00 03 	sb (r4+3),r3
   i2c0->crsr =0x10;
 764:	34 01 00 10 	mvi r1,16
 768:	30 81 00 04 	sb (r4+4),r1
   while((i2c0->crsr)& I2C_TIP);
 76c:	40 81 00 04 	lbu r1,(r4+4)
 770:	20 21 00 02 	andi r1,r1,0x2
 774:	5c 20 ff fe 	bne r1,r0,76c <_Z9i2c_writeccc+0x5c>
//........... todo byte 70 9

   i2c0->TxRx=dat; // last byte
 778:	30 83 00 03 	sb (r4+3),r3
   i2c0->crsr =0x50;
 77c:	34 01 00 50 	mvi r1,80
 780:	30 81 00 04 	sb (r4+4),r1
   while((i2c0->crsr)& I2C_TIP);
 784:	40 81 00 04 	lbu r1,(r4+4)
 788:	20 21 00 02 	andi r1,r1,0x2
 78c:	5c 20 ff fe 	bne r1,r0,784 <_Z9i2c_writeccc+0x74>
//7

}
 790:	c3 a0 00 00 	ret

00000794 <_ZN3pwm7pwm_selEicb>:
#include "pwm.h"
#include "soc-hw.h"

void pwm::pwm_sel(int b, char c, bool en){
 794:	37 9c ff e8 	addi sp,sp,-24
 798:	5b 8b 00 18 	sw (sp+24),r11
 79c:	5b 8c 00 14 	sw (sp+20),r12
 7a0:	5b 8d 00 10 	sw (sp+16),r13
 7a4:	5b 8e 00 0c 	sw (sp+12),r14
 7a8:	5b 8f 00 08 	sw (sp+8),r15
 7ac:	5b 9d 00 04 	sw (sp+4),ra
uint8_t Rd=0;
uint8_t Wr=1;
uint32_t dint=1000000;
uint32_t dind;

uint32_t e=b*12;
 7b0:	08 4b 00 0c 	muli r11,r2,12
void pwm::pwm_sel(int b, char c, bool en){
 7b4:	20 63 00 ff 	andi r3,r3,0xff


if(c==0x11){
dind=0x36*1000;
}
if(c==0x12){
 7b8:	34 01 00 12 	mvi r1,18
void pwm::pwm_sel(int b, char c, bool en){
 7bc:	20 8f 00 ff 	andi r15,r4,0xff
uint32_t d=e+8;
 7c0:	35 6d 00 08 	addi r13,r11,8
uint32_t t=e+4;
 7c4:	35 6e 00 04 	addi r14,r11,4
if(c==0x12){
 7c8:	44 61 00 26 	be r3,r1,860 <_ZN3pwm7pwm_selEicb+0xcc>
dind=0x83*1000;
}
if(c==0x10){
 7cc:	34 01 00 10 	mvi r1,16
dind=0xda*1000;
 7d0:	38 0c 53 90 	mvu r12,0x5390
 7d4:	79 8c 00 03 	orhi r12,r12,0x3
if(c==0x10){
 7d8:	5c 61 00 1a 	bne r3,r1,840 <_ZN3pwm7pwm_selEicb+0xac>
e=e+48;
d=e+8;
t=e+4;
}

pwm_wr(Wr); pwm_rd(Rd);
 7dc:	34 01 00 01 	mvi r1,1
 7e0:	fb ff ff 1d 	calli 454 <_Z6pwm_wrh>
 7e4:	34 01 00 00 	mvi r1,0
 7e8:	fb ff ff 0e 	calli 420 <_Z6pwm_rdh>
pwm_addr(t); pwm_din(dint);
 7ec:	b9 c0 08 00 	mv r1,r14
 7f0:	fb ff ff 13 	calli 43c <_Z8pwm_addrj>
 7f4:	38 01 42 40 	mvu r1,0x4240
 7f8:	78 21 00 0f 	orhi r1,r1,0xf
 7fc:	fb ff ff 1d 	calli 470 <_Z7pwm_dinj>

pwm_addr(d); pwm_din(dind);
 800:	b9 a0 08 00 	mv r1,r13
 804:	fb ff ff 0e 	calli 43c <_Z8pwm_addrj>
 808:	b9 80 08 00 	mv r1,r12
 80c:	fb ff ff 19 	calli 470 <_Z7pwm_dinj>

pwm_addr(e); pwm_din(en);
 810:	b9 60 08 00 	mv r1,r11
 814:	fb ff ff 0a 	calli 43c <_Z8pwm_addrj>
 818:	b9 e0 08 00 	mv r1,r15
 81c:	fb ff ff 15 	calli 470 <_Z7pwm_dinj>


};
 820:	2b 9d 00 04 	lw ra,(sp+4)
 824:	2b 8b 00 18 	lw r11,(sp+24)
 828:	2b 8c 00 14 	lw r12,(sp+20)
 82c:	2b 8d 00 10 	lw r13,(sp+16)
 830:	2b 8e 00 0c 	lw r14,(sp+12)
 834:	2b 8f 00 08 	lw r15,(sp+8)
 838:	37 9c 00 18 	addi sp,sp,24
 83c:	c3 a0 00 00 	ret
if(c==0x13){
 840:	34 01 00 13 	mvi r1,19
 844:	5c 61 00 0a 	bne r3,r1,86c <_ZN3pwm7pwm_selEicb+0xd8>
d=e+8;
 848:	35 6d 00 38 	addi r13,r11,56
t=e+4;
 84c:	35 6e 00 34 	addi r14,r11,52
dind=180000;
 850:	38 0c bf 20 	mvu r12,0xbf20
 854:	79 8c 00 02 	orhi r12,r12,0x2
e=e+48;
 858:	35 6b 00 30 	addi r11,r11,48
 85c:	e3 ff ff e0 	bi 7dc <_ZN3pwm7pwm_selEicb+0x48>
dind=0x83*1000;
 860:	38 0c ff b8 	mvu r12,0xffb8
 864:	79 8c 00 01 	orhi r12,r12,0x1
 868:	e3 ff ff dd 	bi 7dc <_ZN3pwm7pwm_selEicb+0x48>
if(c==0x14){
 86c:	34 01 00 14 	mvi r1,20
 870:	38 0c d2 f0 	mvu r12,0xd2f0
 874:	5c 61 ff da 	bne r3,r1,7dc <_ZN3pwm7pwm_selEicb+0x48>
d=e+8;
 878:	35 6d 00 38 	addi r13,r11,56
t=e+4;
 87c:	35 6e 00 34 	addi r14,r11,52
dind=100000;
 880:	38 0c 86 a0 	mvu r12,0x86a0
 884:	79 8c 00 01 	orhi r12,r12,0x1
e=e+48;
 888:	35 6b 00 30 	addi r11,r11,48
 88c:	e3 ff ff d4 	bi 7dc <_ZN3pwm7pwm_selEicb+0x48>

00000890 <_ZN3pwm5brazoEc>:

int pwm::brazo(char d){
 890:	20 42 00 ff 	andi r2,r2,0xff
int m;
if(d==0x01){m=0;}
if(d==0x02){m=1;}
 894:	34 03 00 02 	mvi r3,2
 898:	34 01 00 01 	mvi r1,1
 89c:	44 43 00 04 	be r2,r3,8ac <_ZN3pwm5brazoEc+0x1c>
if(d==0x03){m=2;}
 8a0:	34 03 00 03 	mvi r3,3
 8a4:	34 01 00 02 	mvi r1,2
 8a8:	5c 43 00 02 	bne r2,r3,8b0 <_ZN3pwm5brazoEc+0x20>
if(d==0x04){m=3;}
return m;
};
 8ac:	c3 a0 00 00 	ret
if(d==0x04){m=3;}
 8b0:	34 03 00 04 	mvi r3,4
 8b4:	34 01 00 00 	mvi r1,0
 8b8:	5c 43 ff fd 	bne r2,r3,8ac <_ZN3pwm5brazoEc+0x1c>
 8bc:	34 01 00 03 	mvi r1,3
};
 8c0:	c3 a0 00 00 	ret

000008c4 <_ZN5timer6nsleepEi>:
void timer::nsleep(int nsec)
{
	int tcr;

	// Use timer0.1
	timer0->compare1 = (FCPU/1000000)*nsec;
 8c4:	78 03 00 00 	mvhi r3,0x0
 8c8:	38 63 0a cc 	ori r3,r3,0xacc
 8cc:	28 61 00 00 	lw r1,(r3+0)
 8d0:	08 42 00 32 	muli r2,r2,50
 8d4:	28 23 00 00 	lw r3,(r1+0)
	timer0->counter1 = 0;
	timer0->tcr1 = TIMER_EN;
 8d8:	34 01 00 08 	mvi r1,8
	timer0->compare1 = (FCPU/1000000)*nsec;
 8dc:	58 62 00 10 	sw (r3+16),r2
	timer0->counter1 = 0;
 8e0:	58 60 00 14 	sw (r3+20),r0
	timer0->tcr1 = TIMER_EN;
 8e4:	58 61 00 0c 	sw (r3+12),r1

	do {
		//halt();
 		tcr = timer0->tcr1;
 8e8:	28 61 00 0c 	lw r1,(r3+12)
 	} while ( ! (tcr & TIMER_TRIG) );
 8ec:	20 21 00 01 	andi r1,r1,0x1
 8f0:	44 20 ff fe 	be r1,r0,8e8 <_ZN5timer6nsleepEi+0x24>
};
 8f4:	c3 a0 00 00 	ret

000008f8 <_ZN4uart9uart_initEv>:
	//uart0->lcr = 0x03;  // Line Control Register:    8N1
	//uart0->mcr = 0x00;  // Modem Control Register

	// Setup Divisor register (Fclk / Baud)
	//uart0->div = (FCPU/(57600*16));
}
 8f8:	c3 a0 00 00 	ret

000008fc <_ZN4uart12uart_getcharEv>:

char uart::uart_getchar()
{   
	while (! (uart0->ucr & UART_DR)) ;
 8fc:	78 02 00 00 	mvhi r2,0x0
 900:	38 42 0a d0 	ori r2,r2,0xad0
 904:	28 41 00 00 	lw r1,(r2+0)
 908:	28 22 00 00 	lw r2,(r1+0)
 90c:	28 41 00 00 	lw r1,(r2+0)
 910:	20 21 00 01 	andi r1,r1,0x1
 914:	44 20 ff fe 	be r1,r0,90c <_ZN4uart12uart_getcharEv+0x10>
	return uart0->rxtx;
 918:	28 41 00 04 	lw r1,(r2+4)
}
 91c:	20 21 00 ff 	andi r1,r1,0xff
 920:	c3 a0 00 00 	ret

00000924 <_ZN4uart12uart_putcharEc>:

void uart::uart_putchar(char c)
{
	while (uart0->ucr & UART_BUSY) ;
 924:	78 03 00 00 	mvhi r3,0x0
 928:	38 63 0a d4 	ori r3,r3,0xad4
 92c:	28 61 00 00 	lw r1,(r3+0)
{
 930:	20 42 00 ff 	andi r2,r2,0xff
	while (uart0->ucr & UART_BUSY) ;
 934:	28 23 00 00 	lw r3,(r1+0)
 938:	28 61 00 00 	lw r1,(r3+0)
 93c:	20 21 00 10 	andi r1,r1,0x10
 940:	5c 20 ff fe 	bne r1,r0,938 <_ZN4uart12uart_putcharEc+0x14>
	uart0->rxtx = c;
 944:	58 62 00 04 	sw (r3+4),r2
}
 948:	c3 a0 00 00 	ret

0000094c <_ZN4uart11uart_putstrEPc>:

void uart::uart_putstr(char *str)
{
	char *c = str;
	while(*c) {
 94c:	40 44 00 00 	lbu r4,(r2+0)
 950:	44 80 00 0c 	be r4,r0,980 <_ZN4uart11uart_putstrEPc+0x34>
	while (uart0->ucr & UART_BUSY) ;
 954:	78 03 00 00 	mvhi r3,0x0
 958:	38 63 0a d8 	ori r3,r3,0xad8
 95c:	28 61 00 00 	lw r1,(r3+0)
 960:	28 23 00 00 	lw r3,(r1+0)
 964:	28 61 00 00 	lw r1,(r3+0)
 968:	20 21 00 10 	andi r1,r1,0x10
 96c:	5c 20 ff fe 	bne r1,r0,964 <_ZN4uart11uart_putstrEPc+0x18>
	uart0->rxtx = c;
 970:	58 64 00 04 	sw (r3+4),r4
		uart_putchar(*c);
		c++;
 974:	34 42 00 01 	addi r2,r2,1
	while(*c) {
 978:	40 44 00 00 	lbu r4,(r2+0)
 97c:	5c 80 ff fa 	bne r4,r0,964 <_ZN4uart11uart_putstrEPc+0x18>
	}
}
 980:	c3 a0 00 00 	ret

00000984 <_ZN4uart11uart_getintEv>:

int uart::uart_getint()
{   
	while (! (uart0->ucr & UART_DR)) ;
 984:	78 02 00 00 	mvhi r2,0x0
 988:	38 42 0a dc 	ori r2,r2,0xadc
 98c:	28 41 00 00 	lw r1,(r2+0)
 990:	28 22 00 00 	lw r2,(r1+0)
 994:	28 41 00 00 	lw r1,(r2+0)
 998:	20 21 00 01 	andi r1,r1,0x1
 99c:	44 20 ff fe 	be r1,r0,994 <_ZN4uart11uart_getintEv+0x10>
	return uart0->rxtx;
 9a0:	28 41 00 04 	lw r1,(r2+4)
}
 9a4:	c3 a0 00 00 	ret

000009a8 <_ZN6camera9cam_tomarEi>:
#include "camera.h"
#include "soc-hw.h"


void camera::cam_tomar(int take)
{
 9a8:	37 9c ff fc 	addi sp,sp,-4
 9ac:	5b 9d 00 04 	sw (sp+4),ra
	cam_takepicture(take);
 9b0:	20 41 00 ff 	andi r1,r2,0xff
 9b4:	fb ff fe 74 	calli 384 <_Z15cam_takepictureh>

};
 9b8:	2b 9d 00 04 	lw ra,(sp+4)
 9bc:	37 9c 00 04 	addi sp,sp,4
 9c0:	c3 a0 00 00 	ret

000009c4 <_ZN6camera7cam_verEi>:

void camera::cam_ver(int ver)
{	
 9c4:	37 9c ff fc 	addi sp,sp,-4
 9c8:	5b 9d 00 04 	sw (sp+4),ra
	cam_leer(ver);
 9cc:	b8 40 08 00 	mv r1,r2
 9d0:	fb ff fe 74 	calli 3a0 <_Z8cam_leerj>
}; 
 9d4:	2b 9d 00 04 	lw ra,(sp+4)
 9d8:	37 9c 00 04 	addi sp,sp,4
 9dc:	c3 a0 00 00 	ret

000009e0 <_ZN6camera8cam_ver1Ei>:

void camera::cam_ver1(int ver1)
{	
 9e0:	37 9c ff fc 	addi sp,sp,-4
 9e4:	5b 9d 00 04 	sw (sp+4),ra
	cam_leer1(ver1);
 9e8:	20 41 00 ff 	andi r1,r2,0xff
 9ec:	fb ff fe 80 	calli 3ec <_Z9cam_leer1h>
}; 
 9f0:	2b 9d 00 04 	lw ra,(sp+4)
 9f4:	37 9c 00 04 	addi sp,sp,4
 9f8:	c3 a0 00 00 	ret

000009fc <_ZN6camera8cam_datoEv>:

char camera::cam_dato()
{	
 9fc:	37 9c ff fc 	addi sp,sp,-4
 a00:	5b 9d 00 04 	sw (sp+4),ra
	return cam_read();
 a04:	fb ff fe 5a 	calli 36c <_Z8cam_readv>
}; 
 a08:	20 21 00 ff 	andi r1,r1,0xff
 a0c:	2b 9d 00 04 	lw ra,(sp+4)
 a10:	37 9c 00 04 	addi sp,sp,4
 a14:	c3 a0 00 00 	ret

00000a18 <_ZN6camera7cam_rstEii>:

void camera::cam_rst(int datwrst, int datrrst)
{
 a18:	37 9c ff f8 	addi sp,sp,-8
 a1c:	5b 8b 00 08 	sw (sp+8),r11
 a20:	5b 9d 00 04 	sw (sp+4),ra
	cam_resetwr  (datwrst);
 a24:	20 41 00 ff 	andi r1,r2,0xff
{
 a28:	b8 60 58 00 	mv r11,r3
	cam_resetwr  (datwrst);
 a2c:	fb ff fe 63 	calli 3b8 <_Z11cam_resetwrh>
	cam_resetrd (datrrst);
 a30:	b9 60 08 00 	mv r1,r11
 a34:	fb ff fe 68 	calli 3d4 <_Z11cam_resetrdj>
};
 a38:	2b 9d 00 04 	lw ra,(sp+4)
 a3c:	2b 8b 00 08 	lw r11,(sp+8)
 a40:	37 9c 00 08 	addi sp,sp,8
 a44:	c3 a0 00 00 	ret
